; Function Attrs: nofree norecurse nosync nounwind memory(none) uwtable
define internal range(i32 0, 2) i32 @ec_to_PrivateKeyInfo_der_does_selection(ptr readnone captures(none) %0, i32 noundef %1) #2 {
  %3 = icmp eq i32 %1, 0
  br i1 %3, label %key2any_check_selection.exit, label %.preheader.i

4:                                                ; preds = %.preheader.i
  %5 = add nuw nsw i64 %.01117.i, 1
  %exitcond.not.i = icmp eq i64 %5, 3
  br i1 %exitcond.not.i, label %key2any_check_selection.exit, label %.preheader.i, !llvm.loop !18

.preheader.i:                                     ; preds = %2, %4
  %.01117.i = phi i64 [ %5, %4 ], [ 0, %2 ]
  %6 = getelementptr inbounds nuw [3 x i32], ptr @__const.key2any_check_selection.checks, i64 0, i64 %.01117.i
  %7 = load i32, ptr %6, align 4, !tbaa !20
  %8 = and i32 %7, %1
  %.not.i = icmp eq i32 %8, 0
  br i1 %.not.i, label %4, label %.loopexit.split.loop.exit.i

.loopexit.split.loop.exit.i:                      ; preds = %.preheader.i
  %9 = icmp eq i64 %.01117.i, 0
  %10 = zext i1 %9 to i32
  br label %key2any_check_selection.exit

key2any_check_selection.exit:                     ; preds = %4, %2, %.loopexit.split.loop.exit.i
  %.0.i = phi i32 [ 1, %2 ], [ %10, %.loopexit.split.loop.exit.i ], [ 0, %4 ]
  ret i32 %.0.i
}